target datalayout = "e-m:e-p270:32:32-p271:32:32-p272:64:64-i64:64-i128:128-f80:128-n8:16:32:64-S128"
target triple = "x86_64-pc-linux-gnu"

; Function Attrs: mustprogress nounwind uwtable
define i32 @u_memcmp_77(ptr noundef %0, ptr noundef %1, i32 noundef %2) #3 {
  %4 = alloca i32, align 4
  %5 = alloca ptr, align 8
  %6 = alloca ptr, align 8
  %7 = alloca i32, align 4
  %8 = alloca ptr, align 8
  %9 = alloca i32, align 4
  %10 = alloca i32, align 4
  store ptr %0, ptr %5, align 8, !tbaa !3
  store ptr %1, ptr %6, align 8, !tbaa !3
  store i32 %2, ptr %7, align 4, !tbaa !8
  %11 = load i32, ptr %7, align 4, !tbaa !8
  %12 = icmp sgt i32 %11, 0
  br i1 %12, label %13, label %43

13:                                               ; preds = %3
  call void @llvm.lifetime.start.p0(i64 8, ptr %8) #7
  %14 = load ptr, ptr %5, align 8, !tbaa !3
  %15 = load i32, ptr %7, align 4, !tbaa !8
  %16 = sext i32 %15 to i64
  %17 = getelementptr inbounds i16, ptr %14, i64 %16
  store ptr %17, ptr %8, align 8, !tbaa !3
  call void @llvm.lifetime.start.p0(i64 4, ptr %9) #7
  br label %18

18:                                               ; preds = %34, %13
  %19 = load ptr, ptr %5, align 8, !tbaa !3
  %20 = load ptr, ptr %8, align 8, !tbaa !3
  %21 = icmp ult ptr %19, %20
  br i1 %21, label %22, label %39

22:                                               ; preds = %18
  %23 = load ptr, ptr %5, align 8, !tbaa !3
  %24 = load i16, ptr %23, align 2, !tbaa !10
  %25 = zext i16 %24 to i32
  %26 = load ptr, ptr %6, align 8, !tbaa !3
  %27 = load i16, ptr %26, align 2, !tbaa !10
  %28 = zext i16 %27 to i32
  %29 = sub nsw i32 %25, %28
  store i32 %29, ptr %9, align 4, !tbaa !8
  %30 = load i32, ptr %9, align 4, !tbaa !8
  %31 = icmp ne i32 %30, 0
  br i1 %31, label %32, label %34

32:                                               ; preds = %22
  %33 = load i32, ptr %9, align 4, !tbaa !8
  store i32 %33, ptr %4, align 4
  store i32 1, ptr %10, align 4
  br label %40

34:                                               ; preds = %22
  %35 = load ptr, ptr %5, align 8, !tbaa !3
  %36 = getelementptr inbounds nuw i16, ptr %35, i32 1
  store ptr %36, ptr %5, align 8, !tbaa !3
  %37 = load ptr, ptr %6, align 8, !tbaa !3
  %38 = getelementptr inbounds nuw i16, ptr %37, i32 1
  store ptr %38, ptr %6, align 8, !tbaa !3
  br label %18, !llvm.loop !67

39:                                               ; preds = %18
  store i32 0, ptr %10, align 4
  br label %40

40:                                               ; preds = %39, %32
  call void @llvm.lifetime.end.p0(i64 4, ptr %9) #7
  call void @llvm.lifetime.end.p0(i64 8, ptr %8) #7
  %41 = load i32, ptr %10, align 4
  switch i32 %41, label %46 [
    i32 0, label %42
    i32 1, label %44
  ]

42:                                               ; preds = %40
  br label %43

43:                                               ; preds = %42, %3
  store i32 0, ptr %4, align 4
  br label %44

44:                                               ; preds = %43, %40
  %45 = load i32, ptr %4, align 4
  ret i32 %45

46:                                               ; preds = %40
  unreachable
}