; Function Attrs: mustprogress nofree norecurse nosync nounwind willreturn memory(argmem: read) uwtable
define range(i32 -65535, 65536) i32 @u_memcmp_77(ptr noundef readonly %0, ptr noundef readonly captures(none) %1, i32 noundef %2) local_unnamed_addr #2 {
  %4 = icmp sgt i32 %2, 0
  br i1 %4, label %.lr.ph.preheader, label %.thread

.lr.ph.preheader:                                 ; preds = %3
  %5 = zext nneg i32 %2 to i64
  %6 = getelementptr inbounds nuw i16, ptr %0, i64 %5
  br label %.lr.ph

.lr.ph:                                           ; preds = %.lr.ph.preheader, %12
  %.01320 = phi ptr [ %13, %12 ], [ %0, %.lr.ph.preheader ]
  %.01419 = phi ptr [ %14, %12 ], [ %1, %.lr.ph.preheader ]
  %7 = load i16, ptr %.01320, align 2, !tbaa !3
  %8 = zext i16 %7 to i32
  %9 = load i16, ptr %.01419, align 2, !tbaa !3
  %10 = zext i16 %9 to i32
  %11 = sub nsw i32 %8, %10
  %.not = icmp eq i32 %11, 0
  br i1 %.not, label %12, label %.thread

12:                                               ; preds = %.lr.ph
  %13 = getelementptr inbounds nuw i8, ptr %.01320, i64 2
  %14 = getelementptr inbounds nuw i8, ptr %.01419, i64 2
  %15 = icmp ult ptr %13, %6
  br i1 %15, label %.lr.ph, label %.thread, !llvm.loop !58

.thread:                                          ; preds = %.lr.ph, %12, %3
  %.1 = phi i32 [ 0, %3 ], [ %11, %.lr.ph ], [ 0, %12 ]
  ret i32 %.1
}